; Function Attrs: mustprogress uwtable
define noundef i32 @_ZNK6casadi7UnaryMX7eval_sxEPPKNS_6SXElemEPPS1_PxS5_(ptr noundef nonnull align 8 dereferenceable(68) %0, ptr noundef readonly captures(none) %1, ptr noundef readonly captures(none) %2, ptr readnone captures(none) %3, ptr readnone captures(none) %4) unnamed_addr #3 align 2 personality ptr @__gxx_personality_v0 {
  %6 = alloca %"class.casadi::SXElem", align 8
  call void @llvm.lifetime.start.p0(i64 8, ptr nonnull %6) #21
  call void @_ZN6casadi6SXElemC1Ed(ptr noundef nonnull align 8 dereferenceable(8) %6, double noundef 0.000000e+00)
  %7 = getelementptr inbounds nuw i8, ptr %0, i64 64
  %8 = load i32, ptr %7, align 8, !tbaa !6
  %9 = load ptr, ptr %1, align 8, !tbaa !107
  %10 = load ptr, ptr %2, align 8, !tbaa !107
  %11 = load ptr, ptr %0, align 8, !tbaa !3
  %12 = getelementptr inbounds nuw i8, ptr %11, i64 392
  %13 = load ptr, ptr %12, align 8
  %14 = invoke noundef nonnull align 8 dereferenceable(8) ptr %13(ptr noundef nonnull align 8 dereferenceable(64) %0, i64 noundef 0)
          to label %.noexc unwind label %18

.noexc:                                           ; preds = %5
  %15 = invoke noundef i64 @_ZNK6casadi8Sparsity3nnzEv(ptr noundef nonnull align 8 dereferenceable(8) %14)
          to label %_ZNK6casadi6MXNode3nnzEx.exit unwind label %18

_ZNK6casadi6MXNode3nnzEx.exit:                    ; preds = %.noexc
  %16 = trunc i32 %8 to i8
  invoke void @_ZN6casadi11casadi_mathINS_6SXElemEE3funEhPKS1_RS3_PS1_x(i8 noundef zeroext %16, ptr noundef %9, ptr noundef nonnull align 8 dereferenceable(8) %6, ptr noundef %10, i64 noundef %15)
          to label %17 unwind label %18

17:                                               ; preds = %_ZNK6casadi6MXNode3nnzEx.exit
  call void @_ZN6casadi6SXElemD1Ev(ptr noundef nonnull align 8 dereferenceable(8) %6) #21
  call void @llvm.lifetime.end.p0(i64 8, ptr nonnull %6) #21
  ret i32 0

18:                                               ; preds = %.noexc, %5, %_ZNK6casadi6MXNode3nnzEx.exit
  %19 = landingpad { ptr, i32 }
          cleanup
  call void @_ZN6casadi6SXElemD1Ev(ptr noundef nonnull align 8 dereferenceable(8) %6) #21
  call void @llvm.lifetime.end.p0(i64 8, ptr nonnull %6) #21
  resume { ptr, i32 } %19
}